target datalayout = "e-m:e-p270:32:32-p271:32:32-p272:64:64-i64:64-i128:128-f80:128-n8:16:32:64-S128"
target triple = "x86_64-pc-linux-gnu"

%struct.cpu_set_t = type { [16 x i64] }
%"class.std::thread" = type { %"class.std::thread::id" }
%"class.std::thread::id" = type { i64 }

; Function Attrs: mustprogress nounwind uwtable
define linkonce_odr dso_local noundef i64 @_ZNSt6thread13native_handleEv(ptr noundef nonnull align 8 dereferenceable(8) %0) #7 comdat align 2 {
  %2 = alloca ptr, align 8
  store ptr %0, ptr %2, align 8, !tbaa !4
  %3 = load ptr, ptr %2, align 8
  %4 = getelementptr inbounds nuw %"class.std::thread", ptr %3, i32 0, i32 0
  %5 = getelementptr inbounds nuw %"class.std::thread::id", ptr %4, i32 0, i32 0
  %6 = load i64, ptr %5, align 8, !tbaa !11
  ret i64 %6
}

; Function Attrs: mustprogress uwtable
define dso_local noundef zeroext i1 @_Z6affineRSt6threadm(ptr noundef nonnull align 8 dereferenceable(8) %0, i64 noundef %1) #4 {
  %3 = alloca ptr, align 8
  %4 = alloca i64, align 8
  %5 = alloca %struct.cpu_set_t, align 8
  %6 = alloca i64, align 8
  %7 = alloca i64, align 8
  %8 = alloca i64, align 8
  store ptr %0, ptr %3, align 8, !tbaa !4
  store i64 %1, ptr %4, align 8, !tbaa !9
  call void @llvm.lifetime.start.p0(i64 128, ptr %5) #3
  br label %9

9:                                                ; preds = %2
  call void @llvm.memset.p0.i64(ptr align 8 %5, i8 0, i64 128, i1 false)
  br label %10

10:                                               ; preds = %9
  br label %11

11:                                               ; preds = %10
  call void @llvm.lifetime.start.p0(i64 8, ptr %6) #3
  %12 = load i64, ptr %4, align 8, !tbaa !9
  store i64 %12, ptr %6, align 8, !tbaa !9
  %13 = load i64, ptr %6, align 8, !tbaa !9
  %14 = udiv i64 %13, 8
  %15 = icmp ult i64 %14, 128
  br i1 %15, label %16, label %27

16:                                               ; preds = %11
  %17 = load i64, ptr %6, align 8, !tbaa !9
  %18 = urem i64 %17, 64
  %19 = shl i64 1, %18
  %20 = getelementptr inbounds nuw %struct.cpu_set_t, ptr %5, i32 0, i32 0
  %21 = getelementptr inbounds [16 x i64], ptr %20, i64 0, i64 0
  %22 = load i64, ptr %6, align 8, !tbaa !9
  %23 = udiv i64 %22, 64
  %24 = getelementptr inbounds nuw i64, ptr %21, i64 %23
  %25 = load i64, ptr %24, align 8, !tbaa !9
  %26 = or i64 %25, %19
  store i64 %26, ptr %24, align 8, !tbaa !9
  br label %28

27:                                               ; preds = %11
  br label %28

28:                                               ; preds = %27, %16
  %29 = phi i64 [ %26, %16 ], [ 0, %27 ]
  store i64 %29, ptr %7, align 8, !tbaa !9
  call void @llvm.lifetime.end.p0(i64 8, ptr %6) #3
  call void @llvm.lifetime.start.p0(i64 8, ptr %8) #3
  %30 = load ptr, ptr %3, align 8, !tbaa !4
  %31 = call noundef i64 @_ZNSt6thread13native_handleEv(ptr noundef nonnull align 8 dereferenceable(8) %30)
  store i64 %31, ptr %8, align 8, !tbaa !9
  %32 = load i64, ptr %8, align 8, !tbaa !9
  %33 = call i32 @pthread_setaffinity_np(i64 noundef %32, i64 noundef 128, ptr noundef %5) #3
  %34 = icmp eq i32 %33, 0
  call void @llvm.lifetime.end.p0(i64 8, ptr %8) #3
  call void @llvm.lifetime.end.p0(i64 128, ptr %5) #3
  ret i1 %34
}