; Function Attrs: mustprogress nounwind uwtable
define dso_local noundef zeroext i1 @_Z6affineRSt6threadm(ptr noundef nonnull readonly align 8 captures(none) dereferenceable(8) %0, i64 noundef %1) local_unnamed_addr #3 {
  %3 = alloca %struct.cpu_set_t, align 8
  call void @llvm.lifetime.start.p0(i64 128, ptr nonnull %3) #31
  call void @llvm.memset.p0.i64(ptr noundef nonnull align 8 dereferenceable(128) %3, i8 0, i64 128, i1 false)
  %4 = icmp ult i64 %1, 1024
  br i1 %4, label %5, label %12

5:                                                ; preds = %2
  %6 = and i64 %1, 63
  %7 = shl nuw i64 1, %6
  %8 = lshr i64 %1, 6
  %9 = getelementptr inbounds nuw i64, ptr %3, i64 %8
  %10 = load i64, ptr %9, align 8, !tbaa !4
  %11 = or i64 %10, %7
  store i64 %11, ptr %9, align 8, !tbaa !4
  br label %12

12:                                               ; preds = %2, %5
  %13 = load i64, ptr %0, align 8, !tbaa !8
  %14 = call i32 @pthread_setaffinity_np(i64 noundef %13, i64 noundef 128, ptr noundef nonnull %3) #31
  %15 = icmp eq i32 %14, 0
  call void @llvm.lifetime.end.p0(i64 128, ptr nonnull %3) #31
  ret i1 %15
}